target datalayout = "e-m:e-p270:32:32-p271:32:32-p272:64:64-i64:64-i128:128-f80:128-n8:16:32:64-S128"
target triple = "x86_64-pc-linux-gnu"

%struct.H5C_cache_entry_t = type { ptr, i64, i64, ptr, i8, ptr, i8, i8, i8, i8, i32, i8, i8, i8, i8, i8, i32, ptr, i32, i32, i32, i32, i32, i8, i8, ptr, ptr, ptr, ptr, ptr, ptr, i8, i32, i8, i64, ptr, i64, i64, i32, i8, i32, i32, i8, ptr, ptr, ptr }
%struct.H5B2_hdr_t = type { %struct.H5C_cache_entry_t, %struct.H5B2_node_ptr_t, i8, i8, i32, i32, i16, i8, ptr, i64, i64, i64, i64, i8, i8, i8, ptr, ptr, ptr, ptr, ptr, ptr, ptr, i8, ptr, ptr, i64, ptr, ptr }
%struct.H5B2_node_ptr_t = type { i64, i16, i64 }
%struct.H5B2_node_info_t = type { i32, i32, i32, i64, i8, ptr, ptr }

@H5B2_init_g = external global i8, align 1
@H5_libterm_g = external global i8, align 1
@.str = private unnamed_addr constant [101 x i8] c"generated/home/dtcxzyw/WorkSpace/Projects/compilers/llvm-opt-benchmark/bench/hdf5/hdf5/src/H5B2int.c\00", align 1
@H5E_BTREE_g = external global i64, align 8
@H5E_CANTINIT_g = external global i64, align 8
@H5E_CANTSPLIT_g = external global i64, align 8
@__func__.H5B2__insert = private unnamed_addr constant [13 x i8] c"H5B2__insert\00", align 1
@.str.14 = private unnamed_addr constant [27 x i8] c"unable to create root node\00", align 1
@.str.15 = private unnamed_addr constant [26 x i8] c"unable to split root node\00", align 1
@H5E_CANTINSERT_g = external global i64, align 8
@.str.16 = private unnamed_addr constant [50 x i8] c"unable to insert record into B-tree internal node\00", align 1
@.str.17 = private unnamed_addr constant [46 x i8] c"unable to insert record into B-tree leaf node\00", align 1
@H5E_CANTMARKDIRTY_g = external global i64, align 8
@.str.18 = private unnamed_addr constant [35 x i8] c"unable to mark B-tree header dirty\00", align 1

; Function Attrs: nounwind uwtable
define i32 @H5B2__insert(ptr noundef %0, ptr noundef %1) #0 {
  %3 = alloca ptr, align 8
  %4 = alloca ptr, align 8
  %5 = alloca i32, align 4
  %6 = alloca i8, align 1
  store ptr %0, ptr %3, align 8, !tbaa !27
  store ptr %1, ptr %4, align 8, !tbaa !14
  call void @llvm.lifetime.start.p0(i64 4, ptr %5) #6
  store i32 0, ptr %5, align 4, !tbaa !8
  call void @llvm.lifetime.start.p0(i64 1, ptr %6) #6
  store i8 0, ptr %6, align 1, !tbaa !17
  %7 = load i8, ptr @H5B2_init_g, align 1, !tbaa !17, !range !19, !noundef !20
  %8 = trunc i8 %7 to i1
  br i1 %8, label %13, label %9

9:                                                ; preds = %2
  %10 = load i8, ptr @H5_libterm_g, align 1, !tbaa !17, !range !19, !noundef !20
  %11 = trunc i8 %10 to i1
  %12 = xor i1 %11, true
  br label %13

13:                                               ; preds = %9, %2
  %14 = phi i1 [ true, %2 ], [ %12, %9 ]
  %15 = xor i1 %14, true
  %16 = xor i1 %15, true
  %17 = zext i1 %16 to i32
  %18 = sext i32 %17 to i64
  %19 = call i64 @llvm.expect.i64(i64 %18, i64 1)
  %20 = icmp ne i64 %19, 0
  br i1 %20, label %21, label %186

21:                                               ; preds = %13
  %22 = load ptr, ptr %3, align 8, !tbaa !27
  %23 = getelementptr inbounds nuw %struct.H5B2_hdr_t, ptr %22, i32 0, i32 1
  %24 = getelementptr inbounds nuw %struct.H5B2_node_ptr_t, ptr %23, i32 0, i32 0
  %25 = load i64, ptr %24, align 8, !tbaa !84
  %26 = icmp ne i64 %25, -1
  br i1 %26, label %54, label %27

27:                                               ; preds = %21
  %28 = load ptr, ptr %3, align 8, !tbaa !27
  %29 = load ptr, ptr %3, align 8, !tbaa !27
  %30 = load ptr, ptr %3, align 8, !tbaa !27
  %31 = getelementptr inbounds nuw %struct.H5B2_hdr_t, ptr %30, i32 0, i32 1
  %32 = call i32 @H5B2__create_leaf(ptr noundef %28, ptr noundef %29, ptr noundef %31)
  %33 = icmp slt i32 %32, 0
  br i1 %33, label %34, label %53

34:                                               ; preds = %27
  br label %35

35:                                               ; preds = %34
  br label %36

36:                                               ; preds = %35
  br label %37

37:                                               ; preds = %36
  %38 = load i64, ptr @H5E_BTREE_g, align 8, !tbaa !24
  %39 = load i64, ptr @H5E_CANTINIT_g, align 8, !tbaa !24
  %40 = call i32 (ptr, ptr, i32, i64, i64, ptr, ...) @H5E_printf_stack(ptr noundef @.str, ptr noundef @__func__.H5B2__insert, i32 noundef 1554, i64 noundef %38, i64 noundef %39, ptr noundef @.str.14)
  br label %41

41:                                               ; preds = %37
  br label %42

42:                                               ; preds = %41
  store i8 1, ptr %6, align 1, !tbaa !17
  %43 = load i8, ptr %6, align 1, !tbaa !17, !range !19, !noundef !20
  %44 = trunc i8 %43 to i1
  %45 = zext i1 %44 to i8
  store i8 %45, ptr %6, align 1, !tbaa !17
  br label %46

46:                                               ; preds = %42
  br label %47

47:                                               ; preds = %46
  br label %48

48:                                               ; preds = %47
  store i32 -1, ptr %5, align 4, !tbaa !8
  br label %185

49:                                               ; No predecessors!
  br label %50

50:                                               ; preds = %49
  br label %51

51:                                               ; preds = %50
  br label %52

52:                                               ; preds = %51
  br label %53

53:                                               ; preds = %52, %27
  br label %96

54:                                               ; preds = %21
  %55 = load ptr, ptr %3, align 8, !tbaa !27
  %56 = getelementptr inbounds nuw %struct.H5B2_hdr_t, ptr %55, i32 0, i32 1
  %57 = getelementptr inbounds nuw %struct.H5B2_node_ptr_t, ptr %56, i32 0, i32 1
  %58 = load i16, ptr %57, align 8, !tbaa !83
  %59 = zext i16 %58 to i32
  %60 = load ptr, ptr %3, align 8, !tbaa !27
  %61 = getelementptr inbounds nuw %struct.H5B2_hdr_t, ptr %60, i32 0, i32 20
  %62 = load ptr, ptr %61, align 8, !tbaa !66
  %63 = load ptr, ptr %3, align 8, !tbaa !27
  %64 = getelementptr inbounds nuw %struct.H5B2_hdr_t, ptr %63, i32 0, i32 6
  %65 = load i16, ptr %64, align 4, !tbaa !65
  %66 = zext i16 %65 to i64
  %67 = getelementptr inbounds nuw %struct.H5B2_node_info_t, ptr %62, i64 %66
  %68 = getelementptr inbounds nuw %struct.H5B2_node_info_t, ptr %67, i32 0, i32 1
  %69 = load i32, ptr %68, align 4, !tbaa !76
  %70 = icmp eq i32 %59, %69
  br i1 %70, label %71, label %95

71:                                               ; preds = %54
  %72 = load ptr, ptr %3, align 8, !tbaa !27
  %73 = call i32 @H5B2__split_root(ptr noundef %72)
  %74 = icmp slt i32 %73, 0
  br i1 %74, label %75, label %94

75:                                               ; preds = %71
  br label %76

76:                                               ; preds = %75
  br label %77

77:                                               ; preds = %76
  br label %78

78:                                               ; preds = %77
  %79 = load i64, ptr @H5E_BTREE_g, align 8, !tbaa !24
  %80 = load i64, ptr @H5E_CANTSPLIT_g, align 8, !tbaa !24
  %81 = call i32 (ptr, ptr, i32, i64, i64, ptr, ...) @H5E_printf_stack(ptr noundef @.str, ptr noundef @__func__.H5B2__insert, i32 noundef 1560, i64 noundef %79, i64 noundef %80, ptr noundef @.str.15)
  br label %82

82:                                               ; preds = %78
  br label %83

83:                                               ; preds = %82
  store i8 1, ptr %6, align 1, !tbaa !17
  %84 = load i8, ptr %6, align 1, !tbaa !17, !range !19, !noundef !20
  %85 = trunc i8 %84 to i1
  %86 = zext i1 %85 to i8
  store i8 %86, ptr %6, align 1, !tbaa !17
  br label %87

87:                                               ; preds = %83
  br label %88

88:                                               ; preds = %87
  br label %89

89:                                               ; preds = %88
  store i32 -1, ptr %5, align 4, !tbaa !8
  br label %185

90:                                               ; No predecessors!
  br label %91

91:                                               ; preds = %90
  br label %92

92:                                               ; preds = %91
  br label %93

93:                                               ; preds = %92
  br label %94

94:                                               ; preds = %93, %71
  br label %95

95:                                               ; preds = %94, %54
  br label %96

96:                                               ; preds = %95, %53
  %97 = load ptr, ptr %3, align 8, !tbaa !27
  %98 = getelementptr inbounds nuw %struct.H5B2_hdr_t, ptr %97, i32 0, i32 6
  %99 = load i16, ptr %98, align 4, !tbaa !65
  %100 = zext i16 %99 to i32
  %101 = icmp sgt i32 %100, 0
  br i1 %101, label %102, label %133

102:                                              ; preds = %96
  %103 = load ptr, ptr %3, align 8, !tbaa !27
  %104 = load ptr, ptr %3, align 8, !tbaa !27
  %105 = getelementptr inbounds nuw %struct.H5B2_hdr_t, ptr %104, i32 0, i32 6
  %106 = load i16, ptr %105, align 4, !tbaa !65
  %107 = load ptr, ptr %3, align 8, !tbaa !27
  %108 = getelementptr inbounds nuw %struct.H5B2_hdr_t, ptr %107, i32 0, i32 1
  %109 = load ptr, ptr %3, align 8, !tbaa !27
  %110 = load ptr, ptr %4, align 8, !tbaa !14
  %111 = call i32 @H5B2__insert_internal(ptr noundef %103, i16 noundef zeroext %106, ptr noundef null, ptr noundef %108, i32 noundef 0, ptr noundef %109, ptr noundef %110)
  %112 = icmp slt i32 %111, 0
  br i1 %112, label %113, label %132

113:                                              ; preds = %102
  br label %114

114:                                              ; preds = %113
  br label %115

115:                                              ; preds = %114
  br label %116

116:                                              ; preds = %115
  %117 = load i64, ptr @H5E_BTREE_g, align 8, !tbaa !24
  %118 = load i64, ptr @H5E_CANTINSERT_g, align 8, !tbaa !24
  %119 = call i32 (ptr, ptr, i32, i64, i64, ptr, ...) @H5E_printf_stack(ptr noundef @.str, ptr noundef @__func__.H5B2__insert, i32 noundef 1566, i64 noundef %117, i64 noundef %118, ptr noundef @.str.16)
  br label %120

120:                                              ; preds = %116
  br label %121

121:                                              ; preds = %120
  store i8 1, ptr %6, align 1, !tbaa !17
  %122 = load i8, ptr %6, align 1, !tbaa !17, !range !19, !noundef !20
  %123 = trunc i8 %122 to i1
  %124 = zext i1 %123 to i8
  store i8 %124, ptr %6, align 1, !tbaa !17
  br label %125

125:                                              ; preds = %121
  br label %126

126:                                              ; preds = %125
  br label %127

127:                                              ; preds = %126
  store i32 -1, ptr %5, align 4, !tbaa !8
  br label %185

128:                                              ; No predecessors!
  br label %129

129:                                              ; preds = %128
  br label %130

130:                                              ; preds = %129
  br label %131

131:                                              ; preds = %130
  br label %132

132:                                              ; preds = %131, %102
  br label %161

133:                                              ; preds = %96
  %134 = load ptr, ptr %3, align 8, !tbaa !27
  %135 = load ptr, ptr %3, align 8, !tbaa !27
  %136 = getelementptr inbounds nuw %struct.H5B2_hdr_t, ptr %135, i32 0, i32 1
  %137 = load ptr, ptr %3, align 8, !tbaa !27
  %138 = load ptr, ptr %4, align 8, !tbaa !14
  %139 = call i32 @H5B2__insert_leaf(ptr noundef %134, ptr noundef %136, i32 noundef 0, ptr noundef %137, ptr noundef %138)
  %140 = icmp slt i32 %139, 0
  br i1 %140, label %141, label %160

141:                                              ; preds = %133
  br label %142

142:                                              ; preds = %141
  br label %143

143:                                              ; preds = %142
  br label %144

144:                                              ; preds = %143
  %145 = load i64, ptr @H5E_BTREE_g, align 8, !tbaa !24
  %146 = load i64, ptr @H5E_CANTINSERT_g, align 8, !tbaa !24
  %147 = call i32 (ptr, ptr, i32, i64, i64, ptr, ...) @H5E_printf_stack(ptr noundef @.str, ptr noundef @__func__.H5B2__insert, i32 noundef 1570, i64 noundef %145, i64 noundef %146, ptr noundef @.str.17)
  br label %148

148:                                              ; preds = %144
  br label %149

149:                                              ; preds = %148
  store i8 1, ptr %6, align 1, !tbaa !17
  %150 = load i8, ptr %6, align 1, !tbaa !17, !range !19, !noundef !20
  %151 = trunc i8 %150 to i1
  %152 = zext i1 %151 to i8
  store i8 %152, ptr %6, align 1, !tbaa !17
  br label %153

153:                                              ; preds = %149
  br label %154

154:                                              ; preds = %153
  br label %155

155:                                              ; preds = %154
  store i32 -1, ptr %5, align 4, !tbaa !8
  br label %185

156:                                              ; No predecessors!
  br label %157

157:                                              ; preds = %156
  br label %158

158:                                              ; preds = %157
  br label %159

159:                                              ; preds = %158
  br label %160

160:                                              ; preds = %159, %133
  br label %161

161:                                              ; preds = %160, %132
  %162 = load ptr, ptr %3, align 8, !tbaa !27
  %163 = call i32 @H5B2__hdr_dirty(ptr noundef %162)
  %164 = icmp slt i32 %163, 0
  br i1 %164, label %165, label %184

165:                                              ; preds = %161
  br label %166

166:                                              ; preds = %165
  br label %167

167:                                              ; preds = %166
  br label %168

168:                                              ; preds = %167
  %169 = load i64, ptr @H5E_BTREE_g, align 8, !tbaa !24
  %170 = load i64, ptr @H5E_CANTMARKDIRTY_g, align 8, !tbaa !24
  %171 = call i32 (ptr, ptr, i32, i64, i64, ptr, ...) @H5E_printf_stack(ptr noundef @.str, ptr noundef @__func__.H5B2__insert, i32 noundef 1575, i64 noundef %169, i64 noundef %170, ptr noundef @.str.18)
  br label %172

172:                                              ; preds = %168
  br label %173

173:                                              ; preds = %172
  store i8 1, ptr %6, align 1, !tbaa !17
  %174 = load i8, ptr %6, align 1, !tbaa !17, !range !19, !noundef !20
  %175 = trunc i8 %174 to i1
  %176 = zext i1 %175 to i8
  store i8 %176, ptr %6, align 1, !tbaa !17
  br label %177

177:                                              ; preds = %173
  br label %178

178:                                              ; preds = %177
  br label %179

179:                                              ; preds = %178
  store i32 -1, ptr %5, align 4, !tbaa !8
  br label %185

180:                                              ; No predecessors!
  br label %181

181:                                              ; preds = %180
  br label %182

182:                                              ; preds = %181
  br label %183

183:                                              ; preds = %182
  br label %184

184:                                              ; preds = %183, %161
  br label %185

185:                                              ; preds = %184, %179, %155, %127, %89, %48
  br label %186

186:                                              ; preds = %185, %13
  %187 = load i32, ptr %5, align 4, !tbaa !8
  call void @llvm.lifetime.end.p0(i64 1, ptr %6) #6
  call void @llvm.lifetime.end.p0(i64 4, ptr %5) #6
  ret i32 %187
}