; Function Attrs: nounwind uwtable
define range(i32 -1, 1) i32 @H5B2__insert(ptr noundef %0, ptr noundef %1) local_unnamed_addr #0 {
  %3 = load i8, ptr @H5B2_init_g, align 1, !tbaa !3, !range !7, !noundef !8
  %4 = trunc nuw i8 %3 to i1
  %5 = load i8, ptr @H5_libterm_g, align 1, !range !7
  %6 = trunc nuw i8 %5 to i1
  %7 = xor i1 %6, true
  %8 = select i1 %4, i1 true, i1 %7
  br i1 %8, label %9, label %62, !prof !9

9:                                                ; preds = %2
  %10 = getelementptr inbounds nuw i8, ptr %0, i64 248
  %11 = load i64, ptr %10, align 8, !tbaa !72
  %.not = icmp eq i64 %11, -1
  br i1 %.not, label %12, label %19

12:                                               ; preds = %9
  %13 = tail call i32 @H5B2__create_leaf(ptr noundef nonnull %0, ptr noundef nonnull %0, ptr noundef nonnull %10) #5
  %14 = icmp slt i32 %13, 0
  br i1 %14, label %15, label %38

15:                                               ; preds = %12
  %16 = load i64, ptr @H5E_BTREE_g, align 8, !tbaa !17
  %17 = load i64, ptr @H5E_CANTINIT_g, align 8, !tbaa !17
  %18 = tail call i32 (ptr, ptr, i32, i64, i64, ptr, ...) @H5E_printf_stack(ptr noundef nonnull @.str, ptr noundef nonnull @__func__.H5B2__insert, i32 noundef 1554, i64 noundef %16, i64 noundef %17, ptr noundef nonnull @.str.14) #5
  br label %62

19:                                               ; preds = %9
  %20 = getelementptr inbounds nuw i8, ptr %0, i64 256
  %21 = load i16, ptr %20, align 8, !tbaa !71
  %22 = zext i16 %21 to i32
  %23 = getelementptr inbounds nuw i8, ptr %0, i64 368
  %24 = load ptr, ptr %23, align 8, !tbaa !53
  %25 = getelementptr inbounds nuw i8, ptr %0, i64 284
  %26 = load i16, ptr %25, align 4, !tbaa !52
  %27 = zext i16 %26 to i64
  %28 = getelementptr inbounds nuw %struct.H5B2_node_info_t, ptr %24, i64 %27, i32 1
  %29 = load i32, ptr %28, align 4, !tbaa !63
  %30 = icmp eq i32 %29, %22
  br i1 %30, label %31, label %38

31:                                               ; preds = %19
  %32 = tail call i32 @H5B2__split_root(ptr noundef nonnull %0)
  %33 = icmp slt i32 %32, 0
  br i1 %33, label %34, label %38

34:                                               ; preds = %31
  %35 = load i64, ptr @H5E_BTREE_g, align 8, !tbaa !17
  %36 = load i64, ptr @H5E_CANTSPLIT_g, align 8, !tbaa !17
  %37 = tail call i32 (ptr, ptr, i32, i64, i64, ptr, ...) @H5E_printf_stack(ptr noundef nonnull @.str, ptr noundef nonnull @__func__.H5B2__insert, i32 noundef 1560, i64 noundef %35, i64 noundef %36, ptr noundef nonnull @.str.15) #5
  br label %62

38:                                               ; preds = %19, %31, %12
  %39 = getelementptr inbounds nuw i8, ptr %0, i64 284
  %40 = load i16, ptr %39, align 4, !tbaa !52
  %.not24 = icmp eq i16 %40, 0
  br i1 %.not24, label %48, label %41

41:                                               ; preds = %38
  %42 = tail call i32 @H5B2__insert_internal(ptr noundef nonnull %0, i16 noundef zeroext %40, ptr noundef null, ptr noundef nonnull %10, i32 noundef 0, ptr noundef nonnull %0, ptr noundef %1) #5
  %43 = icmp slt i32 %42, 0
  br i1 %43, label %44, label %55

44:                                               ; preds = %41
  %45 = load i64, ptr @H5E_BTREE_g, align 8, !tbaa !17
  %46 = load i64, ptr @H5E_CANTINSERT_g, align 8, !tbaa !17
  %47 = tail call i32 (ptr, ptr, i32, i64, i64, ptr, ...) @H5E_printf_stack(ptr noundef nonnull @.str, ptr noundef nonnull @__func__.H5B2__insert, i32 noundef 1566, i64 noundef %45, i64 noundef %46, ptr noundef nonnull @.str.16) #5
  br label %62

48:                                               ; preds = %38
  %49 = tail call i32 @H5B2__insert_leaf(ptr noundef nonnull %0, ptr noundef nonnull %10, i32 noundef 0, ptr noundef nonnull %0, ptr noundef %1) #5
  %50 = icmp slt i32 %49, 0
  br i1 %50, label %51, label %55

51:                                               ; preds = %48
  %52 = load i64, ptr @H5E_BTREE_g, align 8, !tbaa !17
  %53 = load i64, ptr @H5E_CANTINSERT_g, align 8, !tbaa !17
  %54 = tail call i32 (ptr, ptr, i32, i64, i64, ptr, ...) @H5E_printf_stack(ptr noundef nonnull @.str, ptr noundef nonnull @__func__.H5B2__insert, i32 noundef 1570, i64 noundef %52, i64 noundef %53, ptr noundef nonnull @.str.17) #5
  br label %62

55:                                               ; preds = %48, %41
  %56 = tail call i32 @H5B2__hdr_dirty(ptr noundef nonnull %0) #5
  %57 = icmp slt i32 %56, 0
  br i1 %57, label %58, label %62

58:                                               ; preds = %55
  %59 = load i64, ptr @H5E_BTREE_g, align 8, !tbaa !17
  %60 = load i64, ptr @H5E_CANTMARKDIRTY_g, align 8, !tbaa !17
  %61 = tail call i32 (ptr, ptr, i32, i64, i64, ptr, ...) @H5E_printf_stack(ptr noundef nonnull @.str, ptr noundef nonnull @__func__.H5B2__insert, i32 noundef 1575, i64 noundef %59, i64 noundef %60, ptr noundef nonnull @.str.18) #5
  br label %62

62:                                               ; preds = %15, %34, %44, %51, %58, %55, %2
  %.0 = phi i32 [ -1, %34 ], [ -1, %44 ], [ -1, %58 ], [ 0, %55 ], [ -1, %51 ], [ -1, %15 ], [ 0, %2 ]
  ret i32 %.0
}